target datalayout = "e-m:e-p270:32:32-p271:32:32-p272:64:64-i64:64-i128:128-f80:128-n8:16:32:64-S128"
target triple = "x86_64-pc-linux-gnu"

%struct._zend_executor_globals = type { %struct._zval_struct, %struct._zval_struct, [32 x ptr], ptr, ptr, %struct._zend_array, %struct._zend_array, ptr, i32, i32, ptr, ptr, ptr, ptr, ptr, ptr, i64, ptr, ptr, i32, i32, i64, i32, i32, i32, i8, i8, %struct.zend_atomic_bool_s, %struct.zend_atomic_bool_s, ptr, i64, ptr, ptr, %struct._zend_array, %struct._zend_array, i32, i8, %struct._zval_struct, %struct._zval_struct, %struct._zend_stack, %struct._zend_stack, %struct._zend_stack, ptr, i32, i32, i64, ptr, ptr, ptr, %struct._zend_objects_store, ptr, ptr, ptr, [3 x %struct._zend_op], ptr, i8, i8, i64, i32, i32, ptr, [16 x %struct._HashTableIterator], ptr, %union._zend_function, %struct._zend_op, %struct._zend_array, i64, %struct.zend_get_gc_buffer, ptr, ptr, ptr, i64, i8, i32, ptr, ptr, i64, %struct._zend_call_stack, i64, i64, [6 x ptr] }
%struct.zend_atomic_bool_s = type { i8 }
%struct._zval_struct = type { %union._zend_value, %union.anon.0, %union.anon.3 }
%union._zend_value = type { i64 }
%union.anon.0 = type { i32 }
%union.anon.3 = type { i32 }
%struct._zend_stack = type { i32, i32, i32, ptr }
%struct._zend_objects_store = type { ptr, i32, i32, i32 }
%struct._HashTableIterator = type { ptr, i32, i32 }
%union._zend_function = type { %struct._zend_op_array }
%struct._zend_op_array = type { i8, [3 x i8], i32, ptr, ptr, ptr, i32, i32, ptr, ptr, ptr, ptr, i32, i32, i32, i32, ptr, ptr, ptr, ptr, ptr, i32, i32, ptr, ptr, ptr, i32, i32, i32, i32, ptr, ptr, [6 x ptr] }
%struct._zend_op = type { ptr, %union._znode_op, %union._znode_op, %union._znode_op, i32, i32, i8, i8, i8, i8 }
%union._znode_op = type { i32 }
%struct._zend_array = type { %struct._zend_refcounted_h, %union.anon.4, i32, %union.anon.6, i32, i32, i32, i32, i64, ptr }
%struct._zend_refcounted_h = type { i32, %union.anon }
%union.anon = type { i32 }
%union.anon.4 = type { i32 }
%union.anon.6 = type { ptr }
%struct.zend_get_gc_buffer = type { ptr, ptr, ptr }
%struct._zend_call_stack = type { ptr, i64 }
%struct._dom_object = type { ptr, ptr, ptr, %struct._zend_object }
%struct._zend_object = type { %struct._zend_refcounted_h, i32, ptr, ptr, ptr, [1 x %struct._zval_struct] }
%struct._dom_nnodemap_object = type { ptr, %struct._zval_struct, i32, i32, ptr, ptr, ptr, %struct.php_libxml_cache_tag, ptr, i32, i8 }
%struct.php_libxml_cache_tag = type { i64 }
%struct._xmlNotation = type { ptr, ptr, ptr }
%struct._zend_execute_data = type { ptr, ptr, ptr, ptr, %struct._zval_struct, ptr, ptr, ptr, ptr }

@executor_globals = external global %struct._zend_executor_globals, align 8
@.str.2 = private unnamed_addr constant [4 x i8] c"s!s\00", align 1

; Function Attrs: nounwind uwtable
define internal ptr @php_dom_obj_from_obj(ptr noundef %0) #0 {
  %2 = alloca ptr, align 8
  store ptr %0, ptr %2, align 8
  %3 = load ptr, ptr %2, align 8
  %4 = getelementptr inbounds i8, ptr %3, i64 -24
  ret ptr %4
}

; Function Attrs: nounwind uwtable
define hidden void @zim_DOMNamedNodeMap_getNamedItemNS(ptr noundef %0, ptr noundef %1) #0 {
  %3 = alloca ptr, align 8
  %4 = alloca ptr, align 8
  %5 = alloca ptr, align 8
  %6 = alloca i32, align 4
  %7 = alloca i64, align 8
  %8 = alloca i64, align 8
  %9 = alloca ptr, align 8
  %10 = alloca ptr, align 8
  %11 = alloca ptr, align 8
  %12 = alloca ptr, align 8
  %13 = alloca ptr, align 8
  %14 = alloca ptr, align 8
  %15 = alloca ptr, align 8
  store ptr %0, ptr %3, align 8
  store ptr %1, ptr %4, align 8
  store i64 0, ptr %7, align 8
  store i64 0, ptr %8, align 8
  store ptr null, ptr %10, align 8
  store ptr null, ptr %15, align 8
  %16 = load ptr, ptr %3, align 8
  %17 = getelementptr inbounds %struct._zend_execute_data, ptr %16, i32 0, i32 4
  store ptr %17, ptr %5, align 8
  %18 = load ptr, ptr %3, align 8
  %19 = getelementptr inbounds %struct._zend_execute_data, ptr %18, i32 0, i32 4
  %20 = getelementptr inbounds %struct._zval_struct, ptr %19, i32 0, i32 2
  %21 = load i32, ptr %20, align 4
  %22 = call i32 (i32, ptr, ...) @zend_parse_parameters(i32 noundef %21, ptr noundef @.str.2, ptr noundef %11, ptr noundef %8, ptr noundef %12, ptr noundef %7)
  %23 = icmp eq i32 %22, -1
  br i1 %23, label %24, label %29

24:                                               ; preds = %2
  br label %25

25:                                               ; preds = %24
  %26 = load ptr, ptr getelementptr inbounds (%struct._zend_executor_globals, ptr @executor_globals, i32 0, i32 50), align 8
  %27 = icmp ne ptr %26, null
  call void @llvm.assume(i1 %27)
  br label %117

28:                                               ; No predecessors!
  br label %29

29:                                               ; preds = %28, %2
  %30 = load ptr, ptr %5, align 8
  %31 = getelementptr inbounds %struct._zval_struct, ptr %30, i32 0, i32 0
  %32 = load ptr, ptr %31, align 8
  %33 = call ptr @php_dom_obj_from_obj(ptr noundef %32)
  store ptr %33, ptr %9, align 8
  %34 = load ptr, ptr %9, align 8
  %35 = getelementptr inbounds %struct._dom_object, ptr %34, i32 0, i32 0
  %36 = load ptr, ptr %35, align 8
  store ptr %36, ptr %13, align 8
  %37 = load ptr, ptr %13, align 8
  %38 = icmp ne ptr %37, null
  br i1 %38, label %39, label %101

39:                                               ; preds = %29
  %40 = load ptr, ptr %13, align 8
  %41 = getelementptr inbounds %struct._dom_nnodemap_object, ptr %40, i32 0, i32 2
  %42 = load i32, ptr %41, align 8
  %43 = icmp eq i32 %42, 12
  br i1 %43, label %49, label %44

44:                                               ; preds = %39
  %45 = load ptr, ptr %13, align 8
  %46 = getelementptr inbounds %struct._dom_nnodemap_object, ptr %45, i32 0, i32 2
  %47 = load i32, ptr %46, align 8
  %48 = icmp eq i32 %47, 6
  br i1 %48, label %49, label %87

49:                                               ; preds = %44, %39
  %50 = load ptr, ptr %13, align 8
  %51 = getelementptr inbounds %struct._dom_nnodemap_object, ptr %50, i32 0, i32 4
  %52 = load ptr, ptr %51, align 8
  %53 = icmp ne ptr %52, null
  br i1 %53, label %54, label %86

54:                                               ; preds = %49
  %55 = load ptr, ptr %13, align 8
  %56 = getelementptr inbounds %struct._dom_nnodemap_object, ptr %55, i32 0, i32 2
  %57 = load i32, ptr %56, align 8
  %58 = icmp eq i32 %57, 6
  br i1 %58, label %59, label %65

59:                                               ; preds = %54
  %60 = load ptr, ptr %13, align 8
  %61 = getelementptr inbounds %struct._dom_nnodemap_object, ptr %60, i32 0, i32 4
  %62 = load ptr, ptr %61, align 8
  %63 = load ptr, ptr %12, align 8
  %64 = call ptr @xmlHashLookup(ptr noundef %62, ptr noundef %63)
  store ptr %64, ptr %10, align 8
  br label %85

65:                                               ; preds = %54
  %66 = load ptr, ptr %13, align 8
  %67 = getelementptr inbounds %struct._dom_nnodemap_object, ptr %66, i32 0, i32 4
  %68 = load ptr, ptr %67, align 8
  %69 = load ptr, ptr %12, align 8
  %70 = call ptr @xmlHashLookup(ptr noundef %68, ptr noundef %69)
  store ptr %70, ptr %15, align 8
  %71 = load ptr, ptr %15, align 8
  %72 = icmp ne ptr %71, null
  br i1 %72, label %73, label %84

73:                                               ; preds = %65
  %74 = load ptr, ptr %15, align 8
  %75 = getelementptr inbounds %struct._xmlNotation, ptr %74, i32 0, i32 0
  %76 = load ptr, ptr %75, align 8
  %77 = load ptr, ptr %15, align 8
  %78 = getelementptr inbounds %struct._xmlNotation, ptr %77, i32 0, i32 1
  %79 = load ptr, ptr %78, align 8
  %80 = load ptr, ptr %15, align 8
  %81 = getelementptr inbounds %struct._xmlNotation, ptr %80, i32 0, i32 2
  %82 = load ptr, ptr %81, align 8
  %83 = call ptr @create_notation(ptr noundef %76, ptr noundef %79, ptr noundef %82)
  store ptr %83, ptr %10, align 8
  br label %84

84:                                               ; preds = %73, %65
  br label %85

85:                                               ; preds = %84, %59
  br label %86

86:                                               ; preds = %85, %49
  br label %100

87:                                               ; preds = %44
  %88 = load ptr, ptr %13, align 8
  %89 = getelementptr inbounds %struct._dom_nnodemap_object, ptr %88, i32 0, i32 0
  %90 = load ptr, ptr %89, align 8
  %91 = call ptr @dom_object_get_node(ptr noundef %90)
  store ptr %91, ptr %14, align 8
  %92 = load ptr, ptr %14, align 8
  %93 = icmp ne ptr %92, null
  br i1 %93, label %94, label %99

94:                                               ; preds = %87
  %95 = load ptr, ptr %14, align 8
  %96 = load ptr, ptr %12, align 8
  %97 = load ptr, ptr %11, align 8
  %98 = call ptr @xmlHasNsProp(ptr noundef %95, ptr noundef %96, ptr noundef %97)
  store ptr %98, ptr %10, align 8
  br label %99

99:                                               ; preds = %94, %87
  br label %100

100:                                              ; preds = %99, %86
  br label %101

101:                                              ; preds = %100, %29
  %102 = load ptr, ptr %10, align 8
  %103 = icmp ne ptr %102, null
  br i1 %103, label %104, label %112

104:                                              ; preds = %101
  %105 = load ptr, ptr %10, align 8
  %106 = load ptr, ptr %4, align 8
  %107 = load ptr, ptr %13, align 8
  %108 = getelementptr inbounds %struct._dom_nnodemap_object, ptr %107, i32 0, i32 0
  %109 = load ptr, ptr %108, align 8
  %110 = call zeroext i1 @php_dom_create_object(ptr noundef %105, ptr noundef %106, ptr noundef %109)
  %111 = zext i1 %110 to i32
  store i32 %111, ptr %6, align 4
  br label %117

112:                                              ; preds = %101
  br label %113

113:                                              ; preds = %112
  %114 = load ptr, ptr %4, align 8
  %115 = getelementptr inbounds %struct._zval_struct, ptr %114, i32 0, i32 1
  store i32 1, ptr %115, align 8
  br label %116

116:                                              ; preds = %113
  br label %117

117:                                              ; preds = %116, %104, %25
  ret void
}