; Function Attrs: nounwind uwtable
define hidden void @zim_DOMNamedNodeMap_getNamedItemNS(ptr nocapture noundef readonly %0, ptr noundef %1) local_unnamed_addr #0 {
  %3 = alloca i64, align 8
  %4 = alloca i64, align 8
  %5 = alloca ptr, align 8
  %6 = alloca ptr, align 8
  store i64 0, ptr %3, align 8
  store i64 0, ptr %4, align 8
  %7 = getelementptr inbounds i8, ptr %0, i64 44
  %8 = load i32, ptr %7, align 4
  %9 = call i32 (i32, ptr, ...) @zend_parse_parameters(i32 noundef %8, ptr noundef nonnull @.str.2, ptr noundef nonnull %5, ptr noundef nonnull %4, ptr noundef nonnull %6, ptr noundef nonnull %3) #3
  %10 = icmp eq i32 %9, -1
  br i1 %10, label %11, label %14

11:                                               ; preds = %2
  %12 = load ptr, ptr getelementptr inbounds (%struct._zend_executor_globals, ptr @executor_globals, i64 0, i32 50), align 8
  %13 = icmp ne ptr %12, null
  call void @llvm.assume(i1 %13)
  br label %49

14:                                               ; preds = %2
  %15 = getelementptr inbounds i8, ptr %0, i64 32
  %16 = load ptr, ptr %15, align 8
  %17 = getelementptr inbounds i8, ptr %16, i64 -24
  %18 = load ptr, ptr %17, align 8
  %.not = icmp eq ptr %18, null
  br i1 %.not, label %.thread, label %19

19:                                               ; preds = %14
  %20 = getelementptr inbounds i8, ptr %18, i64 24
  %21 = load i32, ptr %20, align 8
  switch i32 %21, label %37 [
    i32 12, label %22
    i32 6, label %22
  ]

22:                                               ; preds = %19, %19
  %23 = getelementptr inbounds i8, ptr %18, i64 32
  %24 = load ptr, ptr %23, align 8
  %.not29 = icmp eq ptr %24, null
  br i1 %.not29, label %.thread, label %25

25:                                               ; preds = %22
  %26 = icmp eq i32 %21, 6
  %27 = load ptr, ptr %6, align 8
  %28 = call ptr @xmlHashLookup(ptr noundef nonnull %24, ptr noundef %27) #3
  br i1 %26, label %44, label %29

29:                                               ; preds = %25
  %.not30 = icmp eq ptr %28, null
  br i1 %.not30, label %.thread, label %30

30:                                               ; preds = %29
  %31 = load ptr, ptr %28, align 8
  %32 = getelementptr inbounds i8, ptr %28, i64 8
  %33 = load ptr, ptr %32, align 8
  %34 = getelementptr inbounds i8, ptr %28, i64 16
  %35 = load ptr, ptr %34, align 8
  %36 = call ptr @create_notation(ptr noundef %31, ptr noundef %33, ptr noundef %35) #3
  br label %44

37:                                               ; preds = %19
  %38 = load ptr, ptr %18, align 8
  %39 = call ptr @dom_object_get_node(ptr noundef %38) #3
  %.not28 = icmp eq ptr %39, null
  br i1 %.not28, label %.thread, label %40

40:                                               ; preds = %37
  %41 = load ptr, ptr %6, align 8
  %42 = load ptr, ptr %5, align 8
  %43 = call ptr @xmlHasNsProp(ptr noundef nonnull %39, ptr noundef %41, ptr noundef %42) #3
  br label %44

44:                                               ; preds = %25, %30, %40
  %.0 = phi ptr [ %36, %30 ], [ %43, %40 ], [ %28, %25 ]
  %.not31 = icmp eq ptr %.0, null
  br i1 %.not31, label %.thread, label %45

45:                                               ; preds = %44
  %46 = load ptr, ptr %18, align 8
  %47 = call zeroext i1 @php_dom_create_object(ptr noundef nonnull %.0, ptr noundef %1, ptr noundef %46) #3
  br label %49

.thread:                                          ; preds = %14, %37, %22, %29, %44
  %48 = getelementptr inbounds i8, ptr %1, i64 8
  store i32 1, ptr %48, align 8
  br label %49

49:                                               ; preds = %.thread, %45, %11
  ret void
}